; Function Attrs: nounwind uwtable
define dso_local ptr @PyList_New(i64 noundef %0) local_unnamed_addr #0 {
  %2 = icmp slt i64 %0, 0
  br i1 %2, label %3, label %4

3:                                                ; preds = %1
  tail call void @_PyErr_BadInternalCall(ptr noundef nonnull @.str.1, i32 noundef 235) #12
  br label %58

4:                                                ; preds = %1
  %5 = tail call align 8 ptr @llvm.threadlocal.address.p0(ptr align 8 @_Py_tss_tstate)
  %6 = load ptr, ptr %5, align 8, !tbaa !4
  %7 = getelementptr inbounds nuw i8, ptr %6, i64 16
  %8 = load ptr, ptr %7, align 8, !tbaa !9
  %9 = getelementptr inbounds nuw i8, ptr %8, i64 11384
  %10 = load ptr, ptr %9, align 8, !tbaa !24
  %.not.i.i = icmp eq ptr %10, null
  br i1 %.not.i.i, label %15, label %_PyFreeList_Pop.exit

_PyFreeList_Pop.exit:                             ; preds = %4
  %11 = load ptr, ptr %10, align 8, !tbaa !25
  store ptr %11, ptr %9, align 8, !tbaa !24
  %12 = getelementptr inbounds nuw i8, ptr %8, i64 11392
  %13 = load i64, ptr %12, align 8, !tbaa !26
  %14 = add i64 %13, -1
  store i64 %14, ptr %12, align 8, !tbaa !26
  tail call void @_Py_NewReference(ptr noundef nonnull %10) #12
  br label %18

15:                                               ; preds = %4
  %16 = tail call ptr @_PyObject_GC_New(ptr noundef nonnull @PyList_Type) #12
  %17 = icmp eq ptr %16, null
  br i1 %17, label %58, label %18

18:                                               ; preds = %_PyFreeList_Pop.exit, %15
  %.0 = phi ptr [ %16, %15 ], [ %10, %_PyFreeList_Pop.exit ]
  %19 = icmp eq i64 %0, 0
  br i1 %19, label %20, label %22

20:                                               ; preds = %18
  %21 = getelementptr inbounds nuw i8, ptr %.0, i64 24
  store ptr null, ptr %21, align 8, !tbaa !27
  br label %33

22:                                               ; preds = %18
  %23 = tail call ptr @PyMem_Calloc(i64 noundef %0, i64 noundef 8) #12
  %24 = getelementptr inbounds nuw i8, ptr %.0, i64 24
  store ptr %23, ptr %24, align 8, !tbaa !27
  %25 = icmp eq ptr %23, null
  br i1 %25, label %26, label %33

26:                                               ; preds = %22
  %27 = load i32, ptr %.0, align 8, !tbaa !32
  %.not.i = icmp sgt i32 %27, -1
  br i1 %.not.i, label %28, label %Py_DECREF.exit

28:                                               ; preds = %26
  %29 = add nsw i32 %27, -1
  store i32 %29, ptr %.0, align 8, !tbaa !32
  %30 = icmp eq i32 %29, 0
  br i1 %30, label %31, label %Py_DECREF.exit

31:                                               ; preds = %28
  tail call void @_Py_Dealloc(ptr noundef nonnull %.0) #12
  br label %Py_DECREF.exit

Py_DECREF.exit:                                   ; preds = %26, %28, %31
  %32 = tail call ptr @PyErr_NoMemory() #12
  br label %58

33:                                               ; preds = %22, %20
  %34 = getelementptr inbounds nuw i8, ptr %.0, i64 16
  store i64 %0, ptr %34, align 8, !tbaa !33
  %35 = getelementptr inbounds nuw i8, ptr %.0, i64 32
  store i64 %0, ptr %35, align 8, !tbaa !34
  %36 = getelementptr i8, ptr %.0, i64 -16
  %37 = load ptr, ptr %5, align 8, !tbaa !4
  %38 = getelementptr inbounds nuw i8, ptr %37, i64 16
  %39 = load ptr, ptr %38, align 8, !tbaa !9
  %40 = getelementptr inbounds nuw i8, ptr %39, i64 7424
  %41 = getelementptr inbounds nuw i8, ptr %39, i64 7432
  %42 = load i64, ptr %41, align 8, !tbaa !35
  %43 = inttoptr i64 %42 to ptr
  %44 = ptrtoint ptr %36 to i64
  %45 = load i64, ptr %43, align 8, !tbaa !37
  %46 = and i64 %45, 3
  %47 = or i64 %46, %44
  store i64 %47, ptr %43, align 8, !tbaa !37
  %48 = getelementptr i8, ptr %.0, i64 -8
  %49 = load i64, ptr %48, align 8, !tbaa !35
  %50 = and i64 %49, 3
  %51 = or i64 %50, %42
  store i64 %51, ptr %48, align 8, !tbaa !35
  %52 = getelementptr inbounds nuw i8, ptr %39, i64 7632
  %53 = load i32, ptr %52, align 8, !tbaa !38
  %54 = xor i32 %53, 1
  %55 = sext i32 %54 to i64
  %56 = ptrtoint ptr %40 to i64
  %57 = or i64 %55, %56
  store i64 %57, ptr %36, align 8, !tbaa !37
  store i64 %44, ptr %41, align 8, !tbaa !35
  br label %58

58:                                               ; preds = %Py_DECREF.exit, %33, %15, %3
  %.015 = phi ptr [ null, %3 ], [ %.0, %33 ], [ %32, %Py_DECREF.exit ], [ null, %15 ]
  ret ptr %.015
}